target datalayout = "e-m:e-p270:32:32-p271:32:32-p272:64:64-i64:64-i128:128-f80:128-n8:16:32:64-S128"
target triple = "x86_64-pc-linux-gnu"

%struct.helper = type { ptr, %struct.ossl_quic_tx_packetiser_args_st, %struct.ossl_qtx_args_st, ptr, ptr, %struct.quic_txfc_st, %struct.quic_rxfc_st, %struct.quic_rxfc_st, %struct.quic_rxfc_st, %struct.quic_rxfc_st, %struct.ossl_statm_st, ptr, ptr, %struct.quic_stream_map_st, i8, i8, ptr, ptr, %struct.ossl_qrx_args_st, ptr, %struct.PACKET, i64, %union.anon.0, [16 x %struct.ossl_quic_ack_range_st] }
%struct.ossl_quic_tx_packetiser_args_st = type { %struct.quic_conn_id_st, %struct.quic_conn_id_st, %union.bio_addr_st, i32, ptr, ptr, ptr, ptr, ptr, ptr, ptr, ptr, ptr, ptr, ptr, ptr, ptr, ptr, ptr, i32, [3 x ptr] }
%struct.quic_conn_id_st = type { i8, [20 x i8] }
%union.bio_addr_st = type { %struct.sockaddr_in6, [84 x i8] }
%struct.sockaddr_in6 = type { i16, i16, i32, %struct.in6_addr, i32 }
%struct.in6_addr = type { %union.anon }
%union.anon = type { [4 x i32] }
%struct.ossl_qtx_args_st = type { ptr, ptr, ptr, i64, ptr, ptr }
%struct.quic_txfc_st = type { ptr, i64, i64, i8 }
%struct.quic_rxfc_st = type { i64, i64, i64, i64, i64, i64, i64, %struct.OSSL_TIME, ptr, ptr, ptr, i8, i8, i8, i8 }
%struct.OSSL_TIME = type { i64 }
%struct.ossl_statm_st = type { %struct.OSSL_TIME, %struct.OSSL_TIME, %struct.OSSL_TIME, %struct.OSSL_TIME, i8 }
%struct.quic_stream_map_st = type { ptr, %struct.quic_stream_list_node_st, %struct.quic_stream_list_node_st, %struct.quic_stream_list_node_st, i64, i64, i64, i64, i64, ptr, ptr, ptr, ptr, ptr, i32 }
%struct.quic_stream_list_node_st = type { ptr, ptr }
%struct.ossl_qrx_args_st = type { ptr, ptr, ptr, i64, i64, [3 x i64], i8 }
%struct.PACKET = type { ptr, i64 }
%union.anon.0 = type { %struct.ossl_quic_frame_new_conn_id_st }
%struct.ossl_quic_frame_new_conn_id_st = type { i64, i64, %struct.quic_conn_id_st, %struct.QUIC_STATELESS_RESET_TOKEN }
%struct.QUIC_STATELESS_RESET_TOKEN = type { [16 x i8] }
%struct.ossl_quic_ack_range_st = type { i64, i64 }

@.str.2 = private unnamed_addr constant [32 x i8] c"../openssl/test/quic_txp_test.c\00", align 1
@reset_token_1 = internal constant [16 x i8] c"\99\88wfUD3\22\11\AA\BB\CC\DD\EE\FF\12", align 16
@cid_1 = internal constant { i8, <{ [8 x i8], [12 x i8] }> } { i8 8, <{ [8 x i8], [12 x i8] }> <{ [8 x i8] c"\B1\B2\B3\B4\B5\B6\B7\B8", [12 x i8] zeroinitializer }> }, align 1
@.str.114 = private unnamed_addr constant [29 x i8] c"h->frame.new_conn_id.seq_num\00", align 1
@.str.115 = private unnamed_addr constant [5 x i8] c"2345\00", align 1
@.str.116 = private unnamed_addr constant [37 x i8] c"h->frame.new_conn_id.retire_prior_to\00", align 1
@.str.117 = private unnamed_addr constant [5 x i8] c"1234\00", align 1
@.str.118 = private unnamed_addr constant [30 x i8] c"&h->frame.new_conn_id.conn_id\00", align 1
@.str.119 = private unnamed_addr constant [7 x i8] c"&cid_1\00", align 1
@.str.120 = private unnamed_addr constant [44 x i8] c"&h->frame.new_conn_id.stateless_reset.token\00", align 1
@.str.121 = private unnamed_addr constant [14 x i8] c"reset_token_1\00", align 1

; Function Attrs: nounwind uwtable
define internal i32 @check_cfq_new_conn_id(ptr noundef %0) #0 {
  %2 = alloca i32, align 4
  %3 = alloca ptr, align 8
  store ptr %0, ptr %3, align 8, !tbaa !82
  %4 = load ptr, ptr %3, align 8, !tbaa !82
  %5 = getelementptr inbounds nuw %struct.helper, ptr %4, i32 0, i32 22
  %6 = getelementptr inbounds nuw %struct.ossl_quic_frame_new_conn_id_st, ptr %5, i32 0, i32 0
  %7 = load i64, ptr %6, align 8, !tbaa !69
  %8 = call i32 @test_uint64_t_eq(ptr noundef @.str.2, i32 noundef 458, ptr noundef @.str.114, ptr noundef @.str.115, i64 noundef %7, i64 noundef 2345)
  %9 = icmp ne i32 %8, 0
  br i1 %9, label %10, label %30

10:                                               ; preds = %1
  %11 = load ptr, ptr %3, align 8, !tbaa !82
  %12 = getelementptr inbounds nuw %struct.helper, ptr %11, i32 0, i32 22
  %13 = getelementptr inbounds nuw %struct.ossl_quic_frame_new_conn_id_st, ptr %12, i32 0, i32 1
  %14 = load i64, ptr %13, align 8, !tbaa !69
  %15 = call i32 @test_uint64_t_eq(ptr noundef @.str.2, i32 noundef 459, ptr noundef @.str.116, ptr noundef @.str.117, i64 noundef %14, i64 noundef 1234)
  %16 = icmp ne i32 %15, 0
  br i1 %16, label %17, label %30

17:                                               ; preds = %10
  %18 = load ptr, ptr %3, align 8, !tbaa !82
  %19 = getelementptr inbounds nuw %struct.helper, ptr %18, i32 0, i32 22
  %20 = getelementptr inbounds nuw %struct.ossl_quic_frame_new_conn_id_st, ptr %19, i32 0, i32 2
  %21 = call i32 @test_mem_eq(ptr noundef @.str.2, i32 noundef 461, ptr noundef @.str.118, ptr noundef @.str.119, ptr noundef %20, i64 noundef 21, ptr noundef @cid_1, i64 noundef 21)
  %22 = icmp ne i32 %21, 0
  br i1 %22, label %23, label %30

23:                                               ; preds = %17
  %24 = load ptr, ptr %3, align 8, !tbaa !82
  %25 = getelementptr inbounds nuw %struct.helper, ptr %24, i32 0, i32 22
  %26 = getelementptr inbounds nuw %struct.ossl_quic_frame_new_conn_id_st, ptr %25, i32 0, i32 3
  %27 = getelementptr inbounds nuw %struct.QUIC_STATELESS_RESET_TOKEN, ptr %26, i32 0, i32 0
  %28 = call i32 @test_mem_eq(ptr noundef @.str.2, i32 noundef 465, ptr noundef @.str.120, ptr noundef @.str.121, ptr noundef %27, i64 noundef 16, ptr noundef @reset_token_1, i64 noundef 16)
  %29 = icmp ne i32 %28, 0
  br i1 %29, label %31, label %30

30:                                               ; preds = %23, %17, %10, %1
  store i32 0, ptr %2, align 4
  br label %32

31:                                               ; preds = %23
  store i32 1, ptr %2, align 4
  br label %32

32:                                               ; preds = %31, %30
  %33 = load i32, ptr %2, align 4
  ret i32 %33
}