; Function Attrs: nounwind uwtable
define internal range(i32 0, 2) i32 @check_cfq_new_conn_id(ptr noundef %0) #0 {
  %2 = getelementptr inbounds nuw i8, ptr %0, i64 1128
  %3 = load i64, ptr %2, align 8, !tbaa !64
  %4 = tail call i32 @test_uint64_t_eq(ptr noundef nonnull @.str.2, i32 noundef 458, ptr noundef nonnull @.str.114, ptr noundef nonnull @.str.115, i64 noundef %3, i64 noundef 2345) #8
  %.not = icmp eq i32 %4, 0
  br i1 %.not, label %15, label %5

5:                                                ; preds = %1
  %6 = getelementptr inbounds nuw i8, ptr %0, i64 1136
  %7 = load i64, ptr %6, align 8, !tbaa !64
  %8 = tail call i32 @test_uint64_t_eq(ptr noundef nonnull @.str.2, i32 noundef 459, ptr noundef nonnull @.str.116, ptr noundef nonnull @.str.117, i64 noundef %7, i64 noundef 1234) #8
  %.not4 = icmp eq i32 %8, 0
  br i1 %.not4, label %15, label %9

9:                                                ; preds = %5
  %10 = getelementptr inbounds nuw i8, ptr %0, i64 1144
  %11 = tail call i32 @test_mem_eq(ptr noundef nonnull @.str.2, i32 noundef 461, ptr noundef nonnull @.str.118, ptr noundef nonnull @.str.119, ptr noundef nonnull %10, i64 noundef 21, ptr noundef nonnull @cid_1, i64 noundef 21) #8
  %.not5 = icmp eq i32 %11, 0
  br i1 %.not5, label %15, label %12

12:                                               ; preds = %9
  %13 = getelementptr inbounds nuw i8, ptr %0, i64 1165
  %14 = tail call i32 @test_mem_eq(ptr noundef nonnull @.str.2, i32 noundef 465, ptr noundef nonnull @.str.120, ptr noundef nonnull @.str.121, ptr noundef nonnull %13, i64 noundef 16, ptr noundef nonnull @reset_token_1, i64 noundef 16) #8
  %.not6 = icmp ne i32 %14, 0
  %spec.select = zext i1 %.not6 to i32
  br label %15

15:                                               ; preds = %12, %1, %5, %9
  %.0 = phi i32 [ 0, %9 ], [ 0, %5 ], [ 0, %1 ], [ %spec.select, %12 ]
  ret i32 %.0
}